; Function Attrs: nounwind uwtable
define dso_local i32 @php_XML_GetCurrentByteCount(ptr noundef readonly captures(none) %0) local_unnamed_addr #0 {
  %2 = getelementptr inbounds nuw i8, ptr %0, i64 24
  %3 = load ptr, ptr %2, align 8, !tbaa !4
  %4 = getelementptr inbounds nuw i8, ptr %3, i64 56
  %5 = load ptr, ptr %4, align 8, !tbaa !62
  %6 = load ptr, ptr %5, align 8, !tbaa !67
  %.not.i = icmp eq ptr %6, null
  br i1 %.not.i, label %.thread.i, label %8

.thread.i:                                        ; preds = %1
  %7 = tail call i64 @xmlByteConsumed(ptr noundef nonnull %3) #11
  br label %php_XML_GetCurrentByteIndex.exit

8:                                                ; preds = %1
  %9 = getelementptr inbounds nuw i8, ptr %6, i64 24
  %10 = load ptr, ptr %9, align 8, !tbaa !68
  store ptr null, ptr %9, align 8, !tbaa !68
  %11 = tail call i64 @xmlByteConsumed(ptr noundef nonnull %3) #11
  %.not9.i = icmp eq ptr %10, null
  br i1 %.not9.i, label %php_XML_GetCurrentByteIndex.exit, label %12

12:                                               ; preds = %8
  %13 = load ptr, ptr %5, align 8, !tbaa !67
  %14 = getelementptr inbounds nuw i8, ptr %13, i64 24
  store ptr %10, ptr %14, align 8, !tbaa !68
  br label %php_XML_GetCurrentByteIndex.exit

php_XML_GetCurrentByteIndex.exit:                 ; preds = %.thread.i, %8, %12
  %15 = phi i64 [ %7, %.thread.i ], [ %11, %12 ], [ %11, %8 ]
  %16 = trunc i64 %15 to i32
  ret i32 %16
}